; Function Attrs: mustprogress nofree norecurse nosync nounwind willreturn memory(write, argmem: readwrite) uwtable
define internal noundef nonnull ptr @_ZN6evmone8advanced12_GLOBAL__N_12opIXadL_ZNS0_5instr4implILNS_6OpcodeE95EXadL_ZNS_5instr4core5push0ENS_8StackTopEEEEEvRNS0_22AdvancedExecutionStateEEEEEPKNS0_11InstructionESD_SA_(ptr noundef readnone captures(ret: address, provenance) %0, ptr noundef nonnull align 8 captures(none) dereferenceable(564) %1) #6 {
  %3 = getelementptr inbounds nuw i8, ptr %1, i64 552
  %.sroa.0.0.copyload.i = load ptr, ptr %3, align 8, !tbaa !57
  tail call void @llvm.memset.p0.i64(ptr noundef nonnull align 8 dereferenceable(32) %.sroa.0.0.copyload.i, i8 0, i64 32, i1 false)
  %4 = load ptr, ptr %3, align 8, !tbaa !67
  %5 = getelementptr inbounds nuw i8, ptr %4, i64 32
  call void @llvm.assume(i1 true) [ "align"(ptr %5, i64 32) ]
  %6 = ptrtoint ptr %5 to i64
  store i64 %6, ptr %3, align 8, !tbaa !57
  %7 = getelementptr inbounds nuw i8, ptr %0, i64 16
  ret ptr %7
}